; Function Attrs: nounwind uwtable
define range(i32 -1, 1) i32 @H5C_log_tear_down(ptr nocapture noundef readonly %0) local_unnamed_addr #0 {
  %2 = getelementptr inbounds i8, ptr %0, i64 8
  %3 = load ptr, ptr %2, align 8
  %4 = load i8, ptr %3, align 8
  %5 = and i8 %4, 1
  %6 = icmp eq i8 %5, 0
  br i1 %6, label %7, label %11

7:                                                ; preds = %1
  %8 = load i64, ptr @H5E_CACHE_g, align 8
  %9 = load i64, ptr @H5E_LOGGING_g, align 8
  %10 = tail call i32 (ptr, ptr, i32, i64, i64, ptr, ...) @H5E_printf_stack(ptr noundef nonnull @.str, ptr noundef nonnull @__func__.H5C_log_tear_down, i32 noundef 144, i64 noundef %8, i64 noundef %9, ptr noundef nonnull @.str.6) #3
  br label %37

11:                                               ; preds = %1
  %12 = getelementptr inbounds i8, ptr %3, i64 1
  %13 = load i8, ptr %12, align 1
  %14 = trunc i8 %13 to i1
  br i1 %14, label %15, label %22

15:                                               ; preds = %11
  %16 = tail call i32 @H5C_stop_logging(ptr noundef nonnull %0)
  %17 = icmp slt i32 %16, 0
  br i1 %17, label %18, label %._crit_edge

._crit_edge:                                      ; preds = %15
  %.pre = load ptr, ptr %2, align 8
  br label %22

18:                                               ; preds = %15
  %19 = load i64, ptr @H5E_CACHE_g, align 8
  %20 = load i64, ptr @H5E_LOGGING_g, align 8
  %21 = tail call i32 (ptr, ptr, i32, i64, i64, ptr, ...) @H5E_printf_stack(ptr noundef nonnull @.str, ptr noundef nonnull @__func__.H5C_log_tear_down, i32 noundef 149, i64 noundef %19, i64 noundef %20, ptr noundef nonnull @.str.7) #3
  br label %37

22:                                               ; preds = %._crit_edge, %11
  %23 = phi ptr [ %.pre, %._crit_edge ], [ %3, %11 ]
  %24 = getelementptr inbounds i8, ptr %23, i64 8
  %25 = load ptr, ptr %24, align 8
  %26 = getelementptr inbounds i8, ptr %25, i64 8
  %27 = load ptr, ptr %26, align 8
  %.not = icmp eq ptr %27, null
  br i1 %.not, label %35, label %28

28:                                               ; preds = %22
  %29 = tail call i32 %27(ptr noundef nonnull %23) #3
  %30 = icmp slt i32 %29, 0
  br i1 %30, label %31, label %._crit_edge11

._crit_edge11:                                    ; preds = %28
  %.pre12 = load ptr, ptr %2, align 8
  br label %35

31:                                               ; preds = %28
  %32 = load i64, ptr @H5E_CACHE_g, align 8
  %33 = load i64, ptr @H5E_LOGGING_g, align 8
  %34 = tail call i32 (ptr, ptr, i32, i64, i64, ptr, ...) @H5E_printf_stack(ptr noundef nonnull @.str, ptr noundef nonnull @__func__.H5C_log_tear_down, i32 noundef 154, i64 noundef %32, i64 noundef %33, ptr noundef nonnull @.str.8) #3
  br label %37

35:                                               ; preds = %._crit_edge11, %22
  %36 = phi ptr [ %.pre12, %._crit_edge11 ], [ %23, %22 ]
  store i8 0, ptr %36, align 8
  br label %37

37:                                               ; preds = %35, %31, %18, %7
  %.0 = phi i32 [ -1, %7 ], [ -1, %18 ], [ -1, %31 ], [ 0, %35 ]
  ret i32 %.0
}